target datalayout = "e-m:e-p270:32:32-p271:32:32-p272:64:64-i64:64-i128:128-f80:128-n8:16:32:64-S128"
target triple = "x86_64-pc-linux-gnu"

%struct.H5VL_file_specific_args_t = type { i32, %union.anon.11 }
%union.anon.11 = type { %struct.anon.14 }
%struct.anon.14 = type { ptr, i64, ptr }
%struct.H5VL_file_get_args_t = type { i32, %union.anon.17 }
%union.anon.17 = type { %struct.H5VL_file_get_name_args_t }
%struct.H5VL_file_get_name_args_t = type { i32, i64, ptr, ptr }
%struct.anon.22 = type { ptr }
%struct.anon.12 = type { i32, i32 }

@.str = private unnamed_addr constant [97 x i8] c"generated/home/dtcxzyw/WorkSpace/Projects/compilers/llvm-opt-benchmark/bench/hdf5/hdf5/src/H5Z.c\00", align 1
@H5E_ARGS_g = external global i64, align 8
@H5E_FILE_g = external global i64, align 8
@H5E_BADTYPE_g = external global i64, align 8
@H5E_CANTGET_g = external global i64, align 8
@H5P_LST_DATASET_XFER_ID_g = external global i64, align 8
@__func__.H5Z__flush_file_cb = private unnamed_addr constant [19 x i8] c"H5Z__flush_file_cb\00", align 1
@.str.49 = private unnamed_addr constant [24 x i8] c"invalid file identifier\00", align 1
@.str.50 = private unnamed_addr constant [34 x i8] c"unable to get file's intent flags\00", align 1
@H5E_OHDR_g = external global i64, align 8
@.str.51 = private unnamed_addr constant [57 x i8] c"can't determine if VOL object is native connector object\00", align 1
@H5E_CANTFLUSH_g = external global i64, align 8
@.str.52 = private unnamed_addr constant [31 x i8] c"unable to flush file hierarchy\00", align 1

; Function Attrs: nounwind uwtable
define internal i32 @H5Z__flush_file_cb(ptr noundef %0, i64 noundef %1, ptr noundef %2) #0 {
  %4 = alloca ptr, align 8
  %5 = alloca i64, align 8
  %6 = alloca ptr, align 8
  %7 = alloca i32, align 4
  %8 = alloca %struct.H5VL_file_specific_args_t, align 8
  %9 = alloca ptr, align 8
  %10 = alloca %struct.H5VL_file_get_args_t, align 8
  %11 = alloca i8, align 1
  %12 = alloca i32, align 4
  %13 = alloca i8, align 1
  store ptr %0, ptr %4, align 8
  store i64 %1, ptr %5, align 8
  store ptr %2, ptr %6, align 8
  store i32 0, ptr %7, align 4
  store i8 1, ptr %11, align 1
  store i32 0, ptr %12, align 4
  store i8 0, ptr %13, align 1
  %14 = load i64, ptr %5, align 8
  %15 = call ptr @H5I_object(i64 noundef %14)
  store ptr %15, ptr %9, align 8
  %16 = icmp eq ptr null, %15
  br i1 %16, label %17, label %32

17:                                               ; preds = %3
  br label %18

18:                                               ; preds = %17
  br label %19

19:                                               ; preds = %18
  br label %20

20:                                               ; preds = %19
  %21 = load i64, ptr @H5E_ARGS_g, align 8
  %22 = load i64, ptr @H5E_BADTYPE_g, align 8
  %23 = call i32 (ptr, ptr, i32, i64, i64, ptr, ...) @H5E_printf_stack(ptr noundef @.str, ptr noundef @__func__.H5Z__flush_file_cb, i32 noundef 630, i64 noundef %21, i64 noundef %22, ptr noundef @.str.49)
  br label %24

24:                                               ; preds = %20
  store i8 1, ptr %13, align 1
  %25 = load i8, ptr %13, align 1
  %26 = trunc i8 %25 to i1
  %27 = zext i1 %26 to i8
  store i8 %27, ptr %13, align 1
  br label %28

28:                                               ; preds = %24
  br label %29

29:                                               ; preds = %28
  store i32 -1, ptr %7, align 4
  br label %105

30:                                               ; No predecessors!
  br label %31

31:                                               ; preds = %30
  br label %32

32:                                               ; preds = %31, %3
  %33 = getelementptr inbounds %struct.H5VL_file_get_args_t, ptr %10, i32 0, i32 0
  store i32 4, ptr %33, align 8
  %34 = getelementptr inbounds %struct.H5VL_file_get_args_t, ptr %10, i32 0, i32 1
  %35 = getelementptr inbounds %struct.anon.22, ptr %34, i32 0, i32 0
  store ptr %12, ptr %35, align 8
  %36 = load ptr, ptr %9, align 8
  %37 = load i64, ptr @H5P_LST_DATASET_XFER_ID_g, align 8
  %38 = call i32 @H5VL_file_get(ptr noundef %36, ptr noundef %10, i64 noundef %37, ptr noundef null)
  %39 = icmp slt i32 %38, 0
  br i1 %39, label %40, label %55

40:                                               ; preds = %32
  br label %41

41:                                               ; preds = %40
  br label %42

42:                                               ; preds = %41
  br label %43

43:                                               ; preds = %42
  %44 = load i64, ptr @H5E_FILE_g, align 8
  %45 = load i64, ptr @H5E_CANTGET_g, align 8
  %46 = call i32 (ptr, ptr, i32, i64, i64, ptr, ...) @H5E_printf_stack(ptr noundef @.str, ptr noundef @__func__.H5Z__flush_file_cb, i32 noundef 638, i64 noundef %44, i64 noundef %45, ptr noundef @.str.50)
  br label %47

47:                                               ; preds = %43
  store i8 1, ptr %13, align 1
  %48 = load i8, ptr %13, align 1
  %49 = trunc i8 %48 to i1
  %50 = zext i1 %49 to i8
  store i8 %50, ptr %13, align 1
  br label %51

51:                                               ; preds = %47
  br label %52

52:                                               ; preds = %51
  store i32 -1, ptr %7, align 4
  br label %105

53:                                               ; No predecessors!
  br label %54

54:                                               ; preds = %53
  br label %55

55:                                               ; preds = %54, %32
  %56 = load ptr, ptr %9, align 8
  %57 = call i32 @H5VL_object_is_native(ptr noundef %56, ptr noundef %11)
  %58 = icmp slt i32 %57, 0
  br i1 %58, label %59, label %74

59:                                               ; preds = %55
  br label %60

60:                                               ; preds = %59
  br label %61

61:                                               ; preds = %60
  br label %62

62:                                               ; preds = %61
  %63 = load i64, ptr @H5E_OHDR_g, align 8
  %64 = load i64, ptr @H5E_CANTGET_g, align 8
  %65 = call i32 (ptr, ptr, i32, i64, i64, ptr, ...) @H5E_printf_stack(ptr noundef @.str, ptr noundef @__func__.H5Z__flush_file_cb, i32 noundef 642, i64 noundef %63, i64 noundef %64, ptr noundef @.str.51)
  br label %66

66:                                               ; preds = %62
  store i8 1, ptr %13, align 1
  %67 = load i8, ptr %13, align 1
  %68 = trunc i8 %67 to i1
  %69 = zext i1 %68 to i8
  store i8 %69, ptr %13, align 1
  br label %70

70:                                               ; preds = %66
  br label %71

71:                                               ; preds = %70
  store i32 -1, ptr %7, align 4
  br label %105

72:                                               ; No predecessors!
  br label %73

73:                                               ; preds = %72
  br label %74

74:                                               ; preds = %73, %55
  %75 = load i32, ptr %12, align 4
  %76 = and i32 1, %75
  %77 = icmp ne i32 %76, 0
  br i1 %77, label %78, label %104

78:                                               ; preds = %74
  %79 = getelementptr inbounds %struct.H5VL_file_specific_args_t, ptr %8, i32 0, i32 0
  store i32 0, ptr %79, align 8
  %80 = getelementptr inbounds %struct.H5VL_file_specific_args_t, ptr %8, i32 0, i32 1
  %81 = getelementptr inbounds %struct.anon.12, ptr %80, i32 0, i32 0
  store i32 1, ptr %81, align 8
  %82 = getelementptr inbounds %struct.H5VL_file_specific_args_t, ptr %8, i32 0, i32 1
  %83 = getelementptr inbounds %struct.anon.12, ptr %82, i32 0, i32 1
  store i32 1, ptr %83, align 4
  %84 = load ptr, ptr %9, align 8
  %85 = load i64, ptr @H5P_LST_DATASET_XFER_ID_g, align 8
  %86 = call i32 @H5VL_file_specific(ptr noundef %84, ptr noundef %8, i64 noundef %85, ptr noundef null)
  %87 = icmp slt i32 %86, 0
  br i1 %87, label %88, label %103

88:                                               ; preds = %78
  br label %89

89:                                               ; preds = %88
  br label %90

90:                                               ; preds = %89
  br label %91

91:                                               ; preds = %90
  %92 = load i64, ptr @H5E_FILE_g, align 8
  %93 = load i64, ptr @H5E_CANTFLUSH_g, align 8
  %94 = call i32 (ptr, ptr, i32, i64, i64, ptr, ...) @H5E_printf_stack(ptr noundef @.str, ptr noundef @__func__.H5Z__flush_file_cb, i32 noundef 685, i64 noundef %92, i64 noundef %93, ptr noundef @.str.52)
  br label %95

95:                                               ; preds = %91
  store i8 1, ptr %13, align 1
  %96 = load i8, ptr %13, align 1
  %97 = trunc i8 %96 to i1
  %98 = zext i1 %97 to i8
  store i8 %98, ptr %13, align 1
  br label %99

99:                                               ; preds = %95
  br label %100

100:                                              ; preds = %99
  store i32 -1, ptr %7, align 4
  br label %105

101:                                              ; No predecessors!
  br label %102

102:                                              ; preds = %101
  br label %103

103:                                              ; preds = %102, %78
  br label %104

104:                                              ; preds = %103, %74
  br label %105

105:                                              ; preds = %104, %100, %71, %52, %29
  %106 = load i32, ptr %7, align 4
  ret i32 %106
}