; Function Attrs: nounwind uwtable
define internal range(i32 -1, 1) i32 @H5Z__flush_file_cb(ptr nocapture readnone %0, i64 noundef %1, ptr nocapture readnone %2) #0 {
  %4 = alloca %struct.H5VL_file_specific_args_t, align 8
  %5 = alloca %struct.H5VL_file_get_args_t, align 8
  %6 = alloca i8, align 1
  %7 = alloca i32, align 4
  store i8 1, ptr %6, align 1
  store i32 0, ptr %7, align 4
  %8 = tail call ptr @H5I_object(i64 noundef %1) #9
  %9 = icmp eq ptr %8, null
  br i1 %9, label %10, label %14

10:                                               ; preds = %3
  %11 = load i64, ptr @H5E_ARGS_g, align 8
  %12 = load i64, ptr @H5E_BADTYPE_g, align 8
  %13 = tail call i32 (ptr, ptr, i32, i64, i64, ptr, ...) @H5E_printf_stack(ptr noundef nonnull @.str, ptr noundef nonnull @__func__.H5Z__flush_file_cb, i32 noundef 630, i64 noundef %11, i64 noundef %12, ptr noundef nonnull @.str.49) #9
  br label %43

14:                                               ; preds = %3
  store i32 4, ptr %5, align 8
  %15 = getelementptr inbounds i8, ptr %5, i64 8
  store ptr %7, ptr %15, align 8
  %16 = load i64, ptr @H5P_LST_DATASET_XFER_ID_g, align 8
  %17 = call i32 @H5VL_file_get(ptr noundef nonnull %8, ptr noundef nonnull %5, i64 noundef %16, ptr noundef null) #9
  %18 = icmp slt i32 %17, 0
  br i1 %18, label %19, label %23

19:                                               ; preds = %14
  %20 = load i64, ptr @H5E_FILE_g, align 8
  %21 = load i64, ptr @H5E_CANTGET_g, align 8
  %22 = call i32 (ptr, ptr, i32, i64, i64, ptr, ...) @H5E_printf_stack(ptr noundef nonnull @.str, ptr noundef nonnull @__func__.H5Z__flush_file_cb, i32 noundef 638, i64 noundef %20, i64 noundef %21, ptr noundef nonnull @.str.50) #9
  br label %43

23:                                               ; preds = %14
  %24 = call i32 @H5VL_object_is_native(ptr noundef nonnull %8, ptr noundef nonnull %6) #9
  %25 = icmp slt i32 %24, 0
  br i1 %25, label %26, label %30

26:                                               ; preds = %23
  %27 = load i64, ptr @H5E_OHDR_g, align 8
  %28 = load i64, ptr @H5E_CANTGET_g, align 8
  %29 = call i32 (ptr, ptr, i32, i64, i64, ptr, ...) @H5E_printf_stack(ptr noundef nonnull @.str, ptr noundef nonnull @__func__.H5Z__flush_file_cb, i32 noundef 642, i64 noundef %27, i64 noundef %28, ptr noundef nonnull @.str.51) #9
  br label %43

30:                                               ; preds = %23
  %31 = load i32, ptr %7, align 4
  %32 = and i32 %31, 1
  %.not = icmp eq i32 %32, 0
  br i1 %.not, label %43, label %33

33:                                               ; preds = %30
  store i32 0, ptr %4, align 8
  %34 = getelementptr inbounds i8, ptr %4, i64 8
  store i32 1, ptr %34, align 8
  %35 = getelementptr inbounds i8, ptr %4, i64 12
  store i32 1, ptr %35, align 4
  %36 = load i64, ptr @H5P_LST_DATASET_XFER_ID_g, align 8
  %37 = call i32 @H5VL_file_specific(ptr noundef nonnull %8, ptr noundef nonnull %4, i64 noundef %36, ptr noundef null) #9
  %38 = icmp slt i32 %37, 0
  br i1 %38, label %39, label %43

39:                                               ; preds = %33
  %40 = load i64, ptr @H5E_FILE_g, align 8
  %41 = load i64, ptr @H5E_CANTFLUSH_g, align 8
  %42 = call i32 (ptr, ptr, i32, i64, i64, ptr, ...) @H5E_printf_stack(ptr noundef nonnull @.str, ptr noundef nonnull @__func__.H5Z__flush_file_cb, i32 noundef 685, i64 noundef %40, i64 noundef %41, ptr noundef nonnull @.str.52) #9
  br label %43

43:                                               ; preds = %30, %33, %39, %26, %19, %10
  %.0 = phi i32 [ -1, %10 ], [ -1, %19 ], [ -1, %26 ], [ -1, %39 ], [ 0, %33 ], [ 0, %30 ]
  ret i32 %.0
}